; Function Attrs: mustprogress nofree norecurse nosync nounwind willreturn memory(write, argmem: readwrite, inaccessiblemem: none) uwtable
define hidden void @Curl_shutdown_clear(ptr noundef readonly captures(none) %0, i32 noundef %1) local_unnamed_addr #4 {
  %3 = getelementptr inbounds nuw i8, ptr %0, i64 24
  %4 = load ptr, ptr %3, align 8, !tbaa !78
  %5 = getelementptr inbounds nuw i8, ptr %4, i64 624
  %6 = sext i32 %1 to i64
  %7 = getelementptr inbounds [2 x %struct.curltime], ptr %5, i64 0, i64 %6
  tail call void @llvm.memset.p0.i64(ptr noundef nonnull align 8 dereferenceable(16) %7, i8 0, i64 16, i1 false)
  ret void
}